; Function Attrs: cold nounwind optsize uwtable
define internal void @uninit(ptr noundef readonly captures(none) %0) #0 {
  %2 = getelementptr inbounds nuw i8, ptr %0, i64 72
  %3 = load ptr, ptr %2, align 8, !tbaa !4
  %4 = getelementptr inbounds nuw i8, ptr %3, i64 32
  %5 = load ptr, ptr %4, align 8, !tbaa !41
  tail call void @av_expr_free(ptr noundef %5) #10
  store ptr null, ptr %4, align 8, !tbaa !41
  %6 = getelementptr inbounds nuw i8, ptr %3, i64 56
  tail call void @av_freep(ptr noundef nonnull %6) #10
  ret void
}